target datalayout = "e-m:e-p270:32:32-p271:32:32-p272:64:64-i64:64-i128:128-f80:128-n8:16:32:64-S128"
target triple = "x86_64-unknown-linux-gnu"

%"class.absl::debian2::string_view" = type { ptr, i64 }
%"class.re2::Regexp::ParseState" = type { i32, %"class.absl::debian2::string_view", ptr, ptr, i32, i32 }
%"class.re2::Regexp" = type { i8, i8, i16, i16, i16, %union.anon, ptr, %union.anon.0 }
%union.anon = type { ptr }
%union.anon.0 = type { %struct.anon.1 }
%struct.anon.1 = type { i32, ptr }
%struct.anon.3 = type { ptr, ptr }
%"class.re2::CharClassBuilder" = type { i32, i32, i32, %"class.std::set" }
%"class.std::set" = type { %"class.std::_Rb_tree" }
%"class.std::_Rb_tree" = type { %"struct.std::_Rb_tree<re2::RuneRange, re2::RuneRange, std::_Identity<re2::RuneRange>, re2::RuneRangeLess>::_Rb_tree_impl" }
%"struct.std::_Rb_tree<re2::RuneRange, re2::RuneRange, std::_Identity<re2::RuneRange>, re2::RuneRangeLess>::_Rb_tree_impl" = type { %"struct.std::_Rb_tree_key_compare", %"struct.std::_Rb_tree_header" }
%"struct.std::_Rb_tree_key_compare" = type { %"struct.re2::RuneRangeLess" }
%"struct.re2::RuneRangeLess" = type { i8 }
%"struct.std::_Rb_tree_header" = type { %"struct.std::_Rb_tree_node_base", i64 }
%"struct.std::_Rb_tree_node_base" = type { i32, ptr, ptr, ptr }
%"struct.std::_Rb_tree_const_iterator" = type { ptr }
%"struct.re2::RuneRange" = type { i32, i32 }
%"struct.std::_Rb_tree_node" = type { %"struct.std::_Rb_tree_node_base", %"struct.__gnu_cxx::__aligned_membuf" }
%"struct.__gnu_cxx::__aligned_membuf" = type { [8 x i8] }

; Function Attrs: mustprogress nounwind uwtable
define linkonce_odr noundef ptr @_ZNK9__gnu_cxx16__aligned_membufIN3re29RuneRangeEE7_M_addrEv(ptr noundef nonnull align 4 dereferenceable(8) %this) #0 comdat align 2 {
entry:
  %this.addr = alloca ptr, align 8
  store ptr %this, ptr %this.addr, align 8
  %this1 = load ptr, ptr %this.addr, align 8
  %_M_storage = getelementptr inbounds %"struct.__gnu_cxx::__aligned_membuf", ptr %this1, i32 0, i32 0
  ret ptr %_M_storage
}

; Function Attrs: mustprogress nounwind uwtable
define linkonce_odr void @_ZNSt23_Rb_tree_const_iteratorIN3re29RuneRangeEEC2EPKSt18_Rb_tree_node_base(ptr noundef nonnull align 8 dereferenceable(8) %this, ptr noundef %__x) unnamed_addr #0 comdat align 2 {
entry:
  %this.addr = alloca ptr, align 8
  %__x.addr = alloca ptr, align 8
  store ptr %this, ptr %this.addr, align 8
  store ptr %__x, ptr %__x.addr, align 8
  %this1 = load ptr, ptr %this.addr, align 8
  %_M_node = getelementptr inbounds %"struct.std::_Rb_tree_const_iterator", ptr %this1, i32 0, i32 0
  %0 = load ptr, ptr %__x.addr, align 8
  store ptr %0, ptr %_M_node, align 8
  ret void
}

; Function Attrs: mustprogress nounwind uwtable
define linkonce_odr noundef ptr @_ZNK9__gnu_cxx16__aligned_membufIN3re29RuneRangeEE6_M_ptrEv(ptr noundef nonnull align 4 dereferenceable(8) %this) #0 comdat align 2 {
entry:
  %this.addr = alloca ptr, align 8
  store ptr %this, ptr %this.addr, align 8
  %this1 = load ptr, ptr %this.addr, align 8
  %call = call noundef ptr @_ZNK9__gnu_cxx16__aligned_membufIN3re29RuneRangeEE7_M_addrEv(ptr noundef nonnull align 4 dereferenceable(8) %this1) #12
  ret ptr %call
}

; Function Attrs: mustprogress nounwind uwtable
define linkonce_odr ptr @_ZNKSt8_Rb_treeIN3re29RuneRangeES1_St9_IdentityIS1_ENS0_13RuneRangeLessESaIS1_EE5beginEv(ptr noundef nonnull align 8 dereferenceable(48) %this) #0 comdat align 2 {
entry:
  %retval = alloca %"struct.std::_Rb_tree_const_iterator", align 8
  %this.addr = alloca ptr, align 8
  store ptr %this, ptr %this.addr, align 8
  %this1 = load ptr, ptr %this.addr, align 8
  %_M_impl = getelementptr inbounds %"class.std::_Rb_tree", ptr %this1, i32 0, i32 0
  %add.ptr = getelementptr inbounds i8, ptr %_M_impl, i64 8
  %_M_header = getelementptr inbounds %"struct.std::_Rb_tree_header", ptr %add.ptr, i32 0, i32 0
  %_M_left = getelementptr inbounds %"struct.std::_Rb_tree_node_base", ptr %_M_header, i32 0, i32 2
  %0 = load ptr, ptr %_M_left, align 8
  call void @_ZNSt23_Rb_tree_const_iteratorIN3re29RuneRangeEEC2EPKSt18_Rb_tree_node_base(ptr noundef nonnull align 8 dereferenceable(8) %retval, ptr noundef %0) #12
  %coerce.dive = getelementptr inbounds %"struct.std::_Rb_tree_const_iterator", ptr %retval, i32 0, i32 0
  %1 = load ptr, ptr %coerce.dive, align 8
  ret ptr %1
}

; Function Attrs: noreturn nounwind uwtable
define linkonce_odr hidden void @__clang_call_terminate(ptr noundef %0) #3 comdat {
  %2 = call ptr @__cxa_begin_catch(ptr %0) #12
  call void @_ZSt9terminatev() #14
  unreachable
}

; Function Attrs: mustprogress nounwind uwtable
define linkonce_odr noundef ptr @_ZNKSt13_Rb_tree_nodeIN3re29RuneRangeEE9_M_valptrEv(ptr noundef nonnull align 8 dereferenceable(40) %this) #0 comdat align 2 {
entry:
  %this.addr = alloca ptr, align 8
  store ptr %this, ptr %this.addr, align 8
  %this1 = load ptr, ptr %this.addr, align 8
  %_M_storage = getelementptr inbounds %"struct.std::_Rb_tree_node", ptr %this1, i32 0, i32 1
  %call = call noundef ptr @_ZNK9__gnu_cxx16__aligned_membufIN3re29RuneRangeEE6_M_ptrEv(ptr noundef nonnull align 4 dereferenceable(8) %_M_storage) #12
  ret ptr %call
}

; Function Attrs: mustprogress nounwind uwtable
define linkonce_odr ptr @_ZNKSt3setIN3re29RuneRangeENS0_13RuneRangeLessESaIS1_EE5beginEv(ptr noundef nonnull align 8 dereferenceable(48) %this) #0 comdat align 2 {
entry:
  %retval = alloca %"struct.std::_Rb_tree_const_iterator", align 8
  %this.addr = alloca ptr, align 8
  store ptr %this, ptr %this.addr, align 8
  %this1 = load ptr, ptr %this.addr, align 8
  %_M_t = getelementptr inbounds %"class.std::set", ptr %this1, i32 0, i32 0
  %call = call ptr @_ZNKSt8_Rb_treeIN3re29RuneRangeES1_St9_IdentityIS1_ENS0_13RuneRangeLessESaIS1_EE5beginEv(ptr noundef nonnull align 8 dereferenceable(48) %_M_t) #12
  %coerce.dive = getelementptr inbounds %"struct.std::_Rb_tree_const_iterator", ptr %retval, i32 0, i32 0
  store ptr %call, ptr %coerce.dive, align 8
  %coerce.dive2 = getelementptr inbounds %"struct.std::_Rb_tree_const_iterator", ptr %retval, i32 0, i32 0
  %0 = load ptr, ptr %coerce.dive2, align 8
  ret ptr %0
}

; Function Attrs: mustprogress nounwind uwtable
define noundef zeroext i1 @_ZN3re26Regexp10ParseState8IsMarkerENS_8RegexpOpE(ptr noundef nonnull align 8 dereferenceable(48) %this, i32 noundef %op) #0 align 2 {
entry:
  %this.addr = alloca ptr, align 8
  %op.addr = alloca i32, align 4
  store ptr %this, ptr %this.addr, align 8
  store i32 %op, ptr %op.addr, align 4
  %0 = load i32, ptr %op.addr, align 4
  %cmp = icmp sge i32 %0, 22
  ret i1 %cmp
}

; Function Attrs: mustprogress nounwind uwtable
define linkonce_odr noundef i32 @_ZN3re26Regexp2opEv(ptr noundef nonnull align 8 dereferenceable(40) %this) #0 comdat align 2 {
entry:
  %this.addr = alloca ptr, align 8
  store ptr %this, ptr %this.addr, align 8
  %this1 = load ptr, ptr %this.addr, align 8
  %op_ = getelementptr inbounds %"class.re2::Regexp", ptr %this1, i32 0, i32 0
  %0 = load i8, ptr %op_, align 8
  %conv = zext i8 %0 to i32
  ret i32 %conv
}

; Function Attrs: mustprogress nounwind uwtable
define linkonce_odr noundef i32 @_ZN3re2orENS_6Regexp10ParseFlagsES1_(i32 noundef %a, i32 noundef %b) #0 comdat {
entry:
  %a.addr = alloca i32, align 4
  %b.addr = alloca i32, align 4
  store i32 %a, ptr %a.addr, align 4
  store i32 %b, ptr %b.addr, align 4
  %0 = load i32, ptr %a.addr, align 4
  %1 = load i32, ptr %b.addr, align 4
  %or = or i32 %0, %1
  ret i32 %or
}

; Function Attrs: mustprogress nounwind uwtable
define linkonce_odr noundef ptr @_ZNKSt23_Rb_tree_const_iteratorIN3re29RuneRangeEEptEv(ptr noundef nonnull align 8 dereferenceable(8) %this) #0 comdat align 2 personality ptr @__gxx_personality_v0 {
entry:
  %this.addr = alloca ptr, align 8
  store ptr %this, ptr %this.addr, align 8
  %this1 = load ptr, ptr %this.addr, align 8
  %_M_node = getelementptr inbounds %"struct.std::_Rb_tree_const_iterator", ptr %this1, i32 0, i32 0
  %0 = load ptr, ptr %_M_node, align 8
  %call = invoke noundef ptr @_ZNKSt13_Rb_tree_nodeIN3re29RuneRangeEE9_M_valptrEv(ptr noundef nonnull align 8 dereferenceable(40) %0)
          to label %invoke.cont unwind label %terminate.lpad

invoke.cont:                                      ; preds = %entry
  ret ptr %call

terminate.lpad:                                   ; preds = %entry
  %1 = landingpad { ptr, i32 }
          catch ptr null
  %2 = extractvalue { ptr, i32 } %1, 0
  call void @__clang_call_terminate(ptr %2) #14
  unreachable
}

; Function Attrs: mustprogress nounwind uwtable
define linkonce_odr ptr @_ZN3re216CharClassBuilder5beginEv(ptr noundef nonnull align 8 dereferenceable(64) %this) #0 comdat align 2 {
entry:
  %retval = alloca %"struct.std::_Rb_tree_const_iterator", align 8
  %this.addr = alloca ptr, align 8
  store ptr %this, ptr %this.addr, align 8
  %this1 = load ptr, ptr %this.addr, align 8
  %ranges_ = getelementptr inbounds %"class.re2::CharClassBuilder", ptr %this1, i32 0, i32 3
  %call = call ptr @_ZNKSt3setIN3re29RuneRangeENS0_13RuneRangeLessESaIS1_EE5beginEv(ptr noundef nonnull align 8 dereferenceable(48) %ranges_) #12
  %coerce.dive = getelementptr inbounds %"struct.std::_Rb_tree_const_iterator", ptr %retval, i32 0, i32 0
  store ptr %call, ptr %coerce.dive, align 8
  %coerce.dive2 = getelementptr inbounds %"struct.std::_Rb_tree_const_iterator", ptr %retval, i32 0, i32 0
  %0 = load ptr, ptr %coerce.dive2, align 8
  ret ptr %0
}

; Function Attrs: mustprogress nounwind uwtable
define linkonce_odr noundef i32 @_ZN3re216CharClassBuilder4sizeEv(ptr noundef nonnull align 8 dereferenceable(64) %this) #0 comdat align 2 {
entry:
  %this.addr = alloca ptr, align 8
  store ptr %this, ptr %this.addr, align 8
  %this1 = load ptr, ptr %this.addr, align 8
  %nrunes_ = getelementptr inbounds %"class.re2::CharClassBuilder", ptr %this1, i32 0, i32 2
  %0 = load i32, ptr %nrunes_, align 8
  ret i32 %0
}

; Function Attrs: mustprogress uwtable
define noundef zeroext i1 @_ZN3re26Regexp10ParseState10PushRegexpEPS0_(ptr noundef nonnull align 8 dereferenceable(48) %this, ptr noundef %re) #1 align 2 personality ptr @__gxx_personality_v0 {
entry:
  %this.addr = alloca ptr, align 8
  %re.addr = alloca ptr, align 8
  %r = alloca i32, align 4
  %ref.tmp = alloca %"struct.std::_Rb_tree_const_iterator", align 8
  %exn.slot = alloca ptr, align 8
  %ehselector.slot = alloca i32, align 4
  %r16 = alloca i32, align 4
  %ref.tmp17 = alloca %"struct.std::_Rb_tree_const_iterator", align 8
  store ptr %this, ptr %this.addr, align 8
  store ptr %re, ptr %re.addr, align 8
  %this1 = load ptr, ptr %this.addr, align 8
  %call = call noundef zeroext i1 @_ZN3re26Regexp10ParseState17MaybeConcatStringEiNS0_10ParseFlagsE(ptr noundef nonnull align 8 dereferenceable(48) %this1, i32 noundef -1, i32 noundef 0)
  %0 = load ptr, ptr %re.addr, align 8
  %op_ = getelementptr inbounds %"class.re2::Regexp", ptr %0, i32 0, i32 0
  %1 = load i8, ptr %op_, align 8
  %conv = zext i8 %1 to i32
  %cmp = icmp eq i32 %conv, 20
  br i1 %cmp, label %land.lhs.true, label %if.end40

land.lhs.true:                                    ; preds = %entry
  %2 = load ptr, ptr %re.addr, align 8
  %3 = getelementptr inbounds %"class.re2::Regexp", ptr %2, i32 0, i32 7
  %ccb_ = getelementptr inbounds %struct.anon.3, ptr %3, i32 0, i32 1
  %4 = load ptr, ptr %ccb_, align 8
  %cmp2 = icmp ne ptr %4, null
  br i1 %cmp2, label %if.then, label %if.end40

if.then:                                          ; preds = %land.lhs.true
  %5 = load ptr, ptr %re.addr, align 8
  %6 = getelementptr inbounds %"class.re2::Regexp", ptr %5, i32 0, i32 7
  %ccb_3 = getelementptr inbounds %struct.anon.3, ptr %6, i32 0, i32 1
  %7 = load ptr, ptr %ccb_3, align 8
  %rune_max_ = getelementptr inbounds %"class.re2::Regexp::ParseState", ptr %this1, i32 0, i32 5
  %8 = load i32, ptr %rune_max_, align 4
  call void @_ZN3re216CharClassBuilder11RemoveAboveEi(ptr noundef nonnull align 8 dereferenceable(64) %7, i32 noundef %8)
  %9 = load ptr, ptr %re.addr, align 8
  %10 = getelementptr inbounds %"class.re2::Regexp", ptr %9, i32 0, i32 7
  %ccb_4 = getelementptr inbounds %struct.anon.3, ptr %10, i32 0, i32 1
  %11 = load ptr, ptr %ccb_4, align 8
  %call5 = call noundef i32 @_ZN3re216CharClassBuilder4sizeEv(ptr noundef nonnull align 8 dereferenceable(64) %11)
  %cmp6 = icmp eq i32 %call5, 1
  br i1 %cmp6, label %if.then7, label %if.else

if.then7:                                         ; preds = %if.then
  %12 = load ptr, ptr %re.addr, align 8
  %13 = getelementptr inbounds %"class.re2::Regexp", ptr %12, i32 0, i32 7
  %ccb_8 = getelementptr inbounds %struct.anon.3, ptr %13, i32 0, i32 1
  %14 = load ptr, ptr %ccb_8, align 8
  %call9 = call ptr @_ZN3re216CharClassBuilder5beginEv(ptr noundef nonnull align 8 dereferenceable(64) %14)
  %coerce.dive = getelementptr inbounds %"struct.std::_Rb_tree_const_iterator", ptr %ref.tmp, i32 0, i32 0
  store ptr %call9, ptr %coerce.dive, align 8
  %call10 = call noundef ptr @_ZNKSt23_Rb_tree_const_iteratorIN3re29RuneRangeEEptEv(ptr noundef nonnull align 8 dereferenceable(8) %ref.tmp) #12
  %lo = getelementptr inbounds %"struct.re2::RuneRange", ptr %call10, i32 0, i32 0
  %15 = load i32, ptr %lo, align 4
  store i32 %15, ptr %r, align 4
  %16 = load ptr, ptr %re.addr, align 8
  call void @_ZN3re26Regexp6DecrefEv(ptr noundef nonnull align 8 dereferenceable(40) %16)
  %call11 = call noalias noundef nonnull ptr @_Znwm(i64 noundef 40) #15
  %flags_ = getelementptr inbounds %"class.re2::Regexp::ParseState", ptr %this1, i32 0, i32 0
  %17 = load i32, ptr %flags_, align 8
  invoke void @_ZN3re26RegexpC1ENS_8RegexpOpENS0_10ParseFlagsE(ptr noundef nonnull align 8 dereferenceable(40) %call11, i32 noundef 3, i32 noundef %17)
          to label %invoke.cont unwind label %lpad

invoke.cont:                                      ; preds = %if.then7
  store ptr %call11, ptr %re.addr, align 8
  %18 = load i32, ptr %r, align 4
  %19 = load ptr, ptr %re.addr, align 8
  %20 = getelementptr inbounds %"class.re2::Regexp", ptr %19, i32 0, i32 7
  store i32 %18, ptr %20, align 8
  br label %if.end39

lpad:                                             ; preds = %if.then7
  %21 = landingpad { ptr, i32 }
          cleanup
  %22 = extractvalue { ptr, i32 } %21, 0
  store ptr %22, ptr %exn.slot, align 8
  %23 = extractvalue { ptr, i32 } %21, 1
  store i32 %23, ptr %ehselector.slot, align 4
  call void @_ZdlPv(ptr noundef %call11) #13
  br label %eh.resume

if.else:                                          ; preds = %if.then
  %24 = load ptr, ptr %re.addr, align 8
  %25 = getelementptr inbounds %"class.re2::Regexp", ptr %24, i32 0, i32 7
  %ccb_12 = getelementptr inbounds %struct.anon.3, ptr %25, i32 0, i32 1
  %26 = load ptr, ptr %ccb_12, align 8
  %call13 = call noundef i32 @_ZN3re216CharClassBuilder4sizeEv(ptr noundef nonnull align 8 dereferenceable(64) %26)
  %cmp14 = icmp eq i32 %call13, 2
  br i1 %cmp14, label %if.then15, label %if.end38

if.then15:                                        ; preds = %if.else
  %27 = load ptr, ptr %re.addr, align 8
  %28 = getelementptr inbounds %"class.re2::Regexp", ptr %27, i32 0, i32 7
  %ccb_18 = getelementptr inbounds %struct.anon.3, ptr %28, i32 0, i32 1
  %29 = load ptr, ptr %ccb_18, align 8
  %call19 = call ptr @_ZN3re216CharClassBuilder5beginEv(ptr noundef nonnull align 8 dereferenceable(64) %29)
  %coerce.dive20 = getelementptr inbounds %"struct.std::_Rb_tree_const_iterator", ptr %ref.tmp17, i32 0, i32 0
  store ptr %call19, ptr %coerce.dive20, align 8
  %call21 = call noundef ptr @_ZNKSt23_Rb_tree_const_iteratorIN3re29RuneRangeEEptEv(ptr noundef nonnull align 8 dereferenceable(8) %ref.tmp17) #12
  %lo22 = getelementptr inbounds %"struct.re2::RuneRange", ptr %call21, i32 0, i32 0
  %30 = load i32, ptr %lo22, align 4
  store i32 %30, ptr %r16, align 4
  %31 = load i32, ptr %r16, align 4
  %cmp23 = icmp sle i32 65, %31
  br i1 %cmp23, label %land.lhs.true24, label %if.end

land.lhs.true24:                                  ; preds = %if.then15
  %32 = load i32, ptr %r16, align 4
  %cmp25 = icmp sle i32 %32, 90
  br i1 %cmp25, label %land.lhs.true26, label %if.end

land.lhs.true26:                                  ; preds = %land.lhs.true24
  %33 = load ptr, ptr %re.addr, align 8
  %34 = getelementptr inbounds %"class.re2::Regexp", ptr %33, i32 0, i32 7
  %ccb_27 = getelementptr inbounds %struct.anon.3, ptr %34, i32 0, i32 1
  %35 = load ptr, ptr %ccb_27, align 8
  %36 = load i32, ptr %r16, align 4
  %add = add nsw i32 %36, 97
  %sub = sub nsw i32 %add, 65
  %call28 = call noundef zeroext i1 @_ZN3re216CharClassBuilder8ContainsEi(ptr noundef nonnull align 8 dereferenceable(64) %35, i32 noundef %sub)
  br i1 %call28, label %if.then29, label %if.end

if.then29:                                        ; preds = %land.lhs.true26
  %37 = load ptr, ptr %re.addr, align 8
  call void @_ZN3re26Regexp6DecrefEv(ptr noundef nonnull align 8 dereferenceable(40) %37)
  %call30 = call noalias noundef nonnull ptr @_Znwm(i64 noundef 40) #15
  %flags_31 = getelementptr inbounds %"class.re2::Regexp::ParseState", ptr %this1, i32 0, i32 0
  %38 = load i32, ptr %flags_31, align 8
  %call34 = invoke noundef i32 @_ZN3re2orENS_6Regexp10ParseFlagsES1_(i32 noundef %38, i32 noundef 1)
          to label %invoke.cont33 unwind label %lpad32

invoke.cont33:                                    ; preds = %if.then29
  invoke void @_ZN3re26RegexpC1ENS_8RegexpOpENS0_10ParseFlagsE(ptr noundef nonnull align 8 dereferenceable(40) %call30, i32 noundef 3, i32 noundef %call34)
          to label %invoke.cont35 unwind label %lpad32

invoke.cont35:                                    ; preds = %invoke.cont33
  store ptr %call30, ptr %re.addr, align 8
  %39 = load i32, ptr %r16, align 4
  %add36 = add nsw i32 %39, 97
  %sub37 = sub nsw i32 %add36, 65
  %40 = load ptr, ptr %re.addr, align 8
  %41 = getelementptr inbounds %"class.re2::Regexp", ptr %40, i32 0, i32 7
  store i32 %sub37, ptr %41, align 8
  br label %if.end

lpad32:                                           ; preds = %invoke.cont33, %if.then29
  %42 = landingpad { ptr, i32 }
          cleanup
  %43 = extractvalue { ptr, i32 } %42, 0
  store ptr %43, ptr %exn.slot, align 8
  %44 = extractvalue { ptr, i32 } %42, 1
  store i32 %44, ptr %ehselector.slot, align 4
  call void @_ZdlPv(ptr noundef %call30) #13
  br label %eh.resume

if.end:                                           ; preds = %invoke.cont35, %land.lhs.true26, %land.lhs.true24, %if.then15
  br label %if.end38

if.end38:                                         ; preds = %if.end, %if.else
  br label %if.end39

if.end39:                                         ; preds = %if.end38, %invoke.cont
  br label %if.end40

if.end40:                                         ; preds = %if.end39, %land.lhs.true, %entry
  %45 = load ptr, ptr %re.addr, align 8
  %call41 = call noundef i32 @_ZN3re26Regexp2opEv(ptr noundef nonnull align 8 dereferenceable(40) %45)
  %call42 = call noundef zeroext i1 @_ZN3re26Regexp10ParseState8IsMarkerENS_8RegexpOpE(ptr noundef nonnull align 8 dereferenceable(48) %this1, i32 noundef %call41)
  br i1 %call42, label %if.end46, label %if.then43

if.then43:                                        ; preds = %if.end40
  %46 = load ptr, ptr %re.addr, align 8
  %call44 = call noundef zeroext i1 @_ZN3re26Regexp13ComputeSimpleEv(ptr noundef nonnull align 8 dereferenceable(40) %46)
  %conv45 = zext i1 %call44 to i8
  %47 = load ptr, ptr %re.addr, align 8
  %simple_ = getelementptr inbounds %"class.re2::Regexp", ptr %47, i32 0, i32 1
  store i8 %conv45, ptr %simple_, align 1
  br label %if.end46

if.end46:                                         ; preds = %if.then43, %if.end40
  %stacktop_ = getelementptr inbounds %"class.re2::Regexp::ParseState", ptr %this1, i32 0, i32 3
  %48 = load ptr, ptr %stacktop_, align 8
  %49 = load ptr, ptr %re.addr, align 8
  %down_ = getelementptr inbounds %"class.re2::Regexp", ptr %49, i32 0, i32 6
  store ptr %48, ptr %down_, align 8
  %50 = load ptr, ptr %re.addr, align 8
  %stacktop_47 = getelementptr inbounds %"class.re2::Regexp::ParseState", ptr %this1, i32 0, i32 3
  store ptr %50, ptr %stacktop_47, align 8
  ret i1 true

eh.resume:                                        ; preds = %lpad32, %lpad
  %exn = load ptr, ptr %exn.slot, align 8
  %sel = load i32, ptr %ehselector.slot, align 4
  %lpad.val = insertvalue { ptr, i32 } poison, ptr %exn, 0
  %lpad.val48 = insertvalue { ptr, i32 } %lpad.val, i32 %sel, 1
  resume { ptr, i32 } %lpad.val48
}