; Function Attrs: mustprogress uwtable
define noundef zeroext i1 @_ZN3re26Regexp10ParseState10PushRegexpEPS0_(ptr nocapture noundef nonnull align 8 dereferenceable(48) %this, ptr noundef %re) local_unnamed_addr #8 align 2 personality ptr @__gxx_personality_v0 {
entry:
  %call = tail call noundef zeroext i1 @_ZN3re26Regexp10ParseState17MaybeConcatStringEiNS0_10ParseFlagsE(ptr noundef nonnull align 8 dereferenceable(48) %this, i32 noundef -1, i32 noundef 0)
  %0 = load i8, ptr %re, align 8
  %cmp = icmp eq i8 %0, 20
  br i1 %cmp, label %land.lhs.true, label %if.end40

land.lhs.true:                                    ; preds = %entry
  %ccb_ = getelementptr inbounds i8, ptr %re, i64 32
  %1 = load ptr, ptr %ccb_, align 8
  %cmp2.not = icmp eq ptr %1, null
  br i1 %cmp2.not, label %if.end40thread-pre-split, label %if.then

if.then:                                          ; preds = %land.lhs.true
  %rune_max_ = getelementptr inbounds i8, ptr %this, i64 44
  %2 = load i32, ptr %rune_max_, align 4
  tail call void @_ZN3re216CharClassBuilder11RemoveAboveEi(ptr noundef nonnull align 8 dereferenceable(64) %1, i32 noundef %2)
  %3 = load ptr, ptr %ccb_, align 8
  %nrunes_.i = getelementptr inbounds i8, ptr %3, i64 8
  %4 = load i32, ptr %nrunes_.i, align 8
  switch i32 %4, label %if.end40thread-pre-split [
    i32 1, label %if.then7
    i32 2, label %if.then15
  ]

if.then7:                                         ; preds = %if.then
  %_M_left.i.i.i = getelementptr inbounds i8, ptr %3, i64 40
  %5 = load ptr, ptr %_M_left.i.i.i, align 8
  %_M_storage.i.i = getelementptr inbounds i8, ptr %5, i64 32
  %6 = load i32, ptr %_M_storage.i.i, align 4
  tail call void @_ZN3re26Regexp6DecrefEv(ptr noundef nonnull align 8 dereferenceable(40) %re)
  %call11 = tail call noalias noundef nonnull dereferenceable(40) ptr @_Znwm(i64 noundef 40) #28
  %7 = load i32, ptr %this, align 8
  invoke void @_ZN3re26RegexpC1ENS_8RegexpOpENS0_10ParseFlagsE(ptr noundef nonnull align 8 dereferenceable(40) %call11, i32 noundef 3, i32 noundef %7)
          to label %if.end40thread-pre-split.sink.split unwind label %lpad

lpad:                                             ; preds = %if.then7
  %8 = landingpad { ptr, i32 }
          cleanup
  br label %eh.resume

if.then15:                                        ; preds = %if.then
  %_M_left.i.i.i23 = getelementptr inbounds i8, ptr %3, i64 40
  %9 = load ptr, ptr %_M_left.i.i.i23, align 8
  %_M_storage.i.i24 = getelementptr inbounds i8, ptr %9, i64 32
  %10 = load i32, ptr %_M_storage.i.i24, align 4
  %11 = add i32 %10, -65
  %or.cond = icmp ult i32 %11, 26
  br i1 %or.cond, label %land.lhs.true26, label %if.end40thread-pre-split

land.lhs.true26:                                  ; preds = %if.then15
  %sub = or disjoint i32 %10, 32
  %call28 = tail call noundef zeroext i1 @_ZN3re216CharClassBuilder8ContainsEi(ptr noundef nonnull align 8 dereferenceable(64) %3, i32 noundef %sub)
  br i1 %call28, label %if.then29, label %if.end40thread-pre-split

if.then29:                                        ; preds = %land.lhs.true26
  tail call void @_ZN3re26Regexp6DecrefEv(ptr noundef nonnull align 8 dereferenceable(40) %re)
  %call30 = tail call noalias noundef nonnull dereferenceable(40) ptr @_Znwm(i64 noundef 40) #28
  %12 = load i32, ptr %this, align 8
  %or.i = or i32 %12, 1
  invoke void @_ZN3re26RegexpC1ENS_8RegexpOpENS0_10ParseFlagsE(ptr noundef nonnull align 8 dereferenceable(40) %call30, i32 noundef 3, i32 noundef %or.i)
          to label %if.end40thread-pre-split.sink.split unwind label %lpad32

lpad32:                                           ; preds = %if.then29
  %13 = landingpad { ptr, i32 }
          cleanup
  br label %eh.resume

if.end40thread-pre-split.sink.split:              ; preds = %if.then29, %if.then7
  %call30.sink = phi ptr [ %call11, %if.then7 ], [ %call30, %if.then29 ]
  %sub.sink = phi i32 [ %6, %if.then7 ], [ %sub, %if.then29 ]
  %14 = getelementptr inbounds i8, ptr %call30.sink, i64 24
  store i32 %sub.sink, ptr %14, align 8
  br label %if.end40thread-pre-split

if.end40thread-pre-split:                         ; preds = %if.end40thread-pre-split.sink.split, %land.lhs.true, %land.lhs.true26, %if.then15, %if.then
  %re.addr.0.ph = phi ptr [ %re, %if.then ], [ %re, %land.lhs.true ], [ %re, %if.then15 ], [ %re, %land.lhs.true26 ], [ %call30.sink, %if.end40thread-pre-split.sink.split ]
  %.pr = load i8, ptr %re.addr.0.ph, align 8
  br label %if.end40

if.end40:                                         ; preds = %if.end40thread-pre-split, %entry
  %15 = phi i8 [ %.pr, %if.end40thread-pre-split ], [ %0, %entry ]
  %re.addr.0 = phi ptr [ %re.addr.0.ph, %if.end40thread-pre-split ], [ %re, %entry ]
  %cmp.i = icmp ugt i8 %15, 21
  br i1 %cmp.i, label %if.end46, label %if.then43

if.then43:                                        ; preds = %if.end40
  %call44 = tail call noundef zeroext i1 @_ZN3re26Regexp13ComputeSimpleEv(ptr noundef nonnull align 8 dereferenceable(40) %re.addr.0)
  %conv45 = zext i1 %call44 to i8
  %simple_ = getelementptr inbounds i8, ptr %re.addr.0, i64 1
  store i8 %conv45, ptr %simple_, align 1
  br label %if.end46

if.end46:                                         ; preds = %if.then43, %if.end40
  %stacktop_ = getelementptr inbounds i8, ptr %this, i64 32
  %16 = load ptr, ptr %stacktop_, align 8
  %down_ = getelementptr inbounds i8, ptr %re.addr.0, i64 16
  store ptr %16, ptr %down_, align 8
  store ptr %re.addr.0, ptr %stacktop_, align 8
  ret i1 true

eh.resume:                                        ; preds = %lpad32, %lpad
  %call30.sink25 = phi ptr [ %call30, %lpad32 ], [ %call11, %lpad ]
  %.pn = phi { ptr, i32 } [ %13, %lpad32 ], [ %8, %lpad ]
  tail call void @_ZdlPv(ptr noundef nonnull %call30.sink25) #26
  resume { ptr, i32 } %.pn
}